(dp1
S'12106872244'
p2
S'Big Dick Nick'
p3
sS'12106215059'
p4
S'Willyboi'
p5
sS'12104128237'
p6
S'Lukifer'
p7
sS'12108639219'
p8
S'Twin Tower Enthusiast'
p9
sS'12108728806'
p10
S'swag bitch'
p11
sS'12107485865'
p12
S'Robert'
p13
sS'12103966008'
p14
S'Hunter'
p15
sS'12108342408'
p16
S'Deformed Child'
p17
s.